target datalayout = "e-m:e-p270:32:32-p271:32:32-p272:64:64-i64:64-i128:128-f80:128-n8:16:32:64-S128"
target triple = "x86_64-unknown-linux-gnu"

%"struct.icu_75::number::impl::ParsedPatternInfo" = type <{ %"class.icu_75::number::impl::AffixPatternProvider", %"class.icu_75::UnicodeString", %"struct.icu_75::number::impl::ParsedSubpatternInfo", %"struct.icu_75::number::impl::ParsedSubpatternInfo", %"struct.icu_75::number::impl::ParsedPatternInfo::ParserState", ptr, i8, [7 x i8] }>
%"class.icu_75::number::impl::AffixPatternProvider" = type { ptr }
%"class.icu_75::UnicodeString" = type { %"class.icu_75::Replaceable", %"union.icu_75::UnicodeString::StackBufferOrFields" }
%"class.icu_75::Replaceable" = type { %"class.icu_75::UObject" }
%"class.icu_75::UObject" = type { ptr }
%"union.icu_75::UnicodeString::StackBufferOrFields" = type { %struct.anon.0, [32 x i8] }
%struct.anon.0 = type { i16, i32, i32, ptr }
%"struct.icu_75::number::impl::ParsedSubpatternInfo" = type { i64, i32, i32, i32, i32, i32, i32, i32, i32, i8, i32, i8, i32, %"class.icu_75::number::impl::DecimalQuantity", i8, i32, i8, i8, i8, i8, i8, i8, %"struct.icu_75::number::impl::Endpoints", %"struct.icu_75::number::impl::Endpoints", %"struct.icu_75::number::impl::Endpoints" }
%"class.icu_75::number::impl::DecimalQuantity" = type <{ %"class.icu_75::IFixedDecimal", i8, [3 x i8], i32, i32, i8, i8, [2 x i8], double, i32, i32, i32, i32, %union.anon, i8, i8, [6 x i8] }>
%"class.icu_75::IFixedDecimal" = type { ptr }
%union.anon = type { %struct.anon.1 }
%struct.anon.1 = type { ptr, i32 }
%"struct.icu_75::number::impl::Endpoints" = type { i32, i32 }
%"struct.icu_75::number::impl::ParsedPatternInfo::ParserState" = type <{ ptr, i32, [4 x i8] }>

; Function Attrs: mustprogress nounwind uwtable
define linkonce_odr noundef i32 @_ZNK6icu_7513UnicodeString14getShortLengthEv(ptr noundef nonnull align 8 dereferenceable(64) %this) #0 comdat align 2 {
entry:
  %this.addr = alloca ptr, align 8
  store ptr %this, ptr %this.addr, align 8
  %this1 = load ptr, ptr %this.addr, align 8
  %fUnion = getelementptr inbounds %"class.icu_75::UnicodeString", ptr %this1, i32 0, i32 1
  %fLengthAndFlags = getelementptr inbounds %struct.anon.0, ptr %fUnion, i32 0, i32 0
  %0 = load i16, ptr %fLengthAndFlags, align 8
  %conv = sext i16 %0 to i32
  %shr = ashr i32 %conv, 5
  ret i32 %shr
}

; Function Attrs: mustprogress nounwind uwtable
define linkonce_odr noundef signext i8 @_ZNK6icu_7513UnicodeString14hasShortLengthEv(ptr noundef nonnull align 8 dereferenceable(64) %this) #0 comdat align 2 {
entry:
  %this.addr = alloca ptr, align 8
  store ptr %this, ptr %this.addr, align 8
  %this1 = load ptr, ptr %this.addr, align 8
  %fUnion = getelementptr inbounds %"class.icu_75::UnicodeString", ptr %this1, i32 0, i32 1
  %fLengthAndFlags = getelementptr inbounds %struct.anon.0, ptr %fUnion, i32 0, i32 0
  %0 = load i16, ptr %fLengthAndFlags, align 8
  %conv = sext i16 %0 to i32
  %cmp = icmp sge i32 %conv, 0
  %conv2 = zext i1 %cmp to i8
  ret i8 %conv2
}

; Function Attrs: mustprogress nounwind uwtable
define internal noundef signext i8 @_ZL9U_FAILURE10UErrorCode(i32 noundef %code) #0 {
entry:
  %code.addr = alloca i32, align 4
  store i32 %code, ptr %code.addr, align 4
  %0 = load i32, ptr %code.addr, align 4
  %cmp = icmp sgt i32 %0, 0
  %conv = zext i1 %cmp to i8
  ret i8 %conv
}

; Function Attrs: mustprogress uwtable
define void @_ZN6icu_756number4impl13PatternParser18parseToPatternInfoERKNS_13UnicodeStringERNS1_17ParsedPatternInfoER10UErrorCode(ptr noundef nonnull align 8 dereferenceable(64) %patternString, ptr noundef nonnull align 8 dereferenceable(433) %patternInfo, ptr noundef nonnull align 4 dereferenceable(4) %status) #1 align 2 {
entry:
  %patternString.addr = alloca ptr, align 8
  %patternInfo.addr = alloca ptr, align 8
  %status.addr = alloca ptr, align 8
  store ptr %patternString, ptr %patternString.addr, align 8
  store ptr %patternInfo, ptr %patternInfo.addr, align 8
  store ptr %status, ptr %status.addr, align 8
  %0 = load ptr, ptr %patternInfo.addr, align 8
  %1 = load ptr, ptr %patternString.addr, align 8
  %2 = load ptr, ptr %status.addr, align 8
  call void @_ZN6icu_756number4impl17ParsedPatternInfo14consumePatternERKNS_13UnicodeStringER10UErrorCode(ptr noundef nonnull align 8 dereferenceable(433) %0, ptr noundef nonnull align 8 dereferenceable(64) %1, ptr noundef nonnull align 4 dereferenceable(4) %2)
  ret void
}

; Function Attrs: mustprogress uwtable
define linkonce_odr noundef i32 @_ZNK6icu_7513UnicodeString6lengthEv(ptr noundef nonnull align 8 dereferenceable(64) %this) #1 comdat align 2 {
entry:
  %this.addr = alloca ptr, align 8
  store ptr %this, ptr %this.addr, align 8
  %this1 = load ptr, ptr %this.addr, align 8
  %call = call noundef signext i8 @_ZNK6icu_7513UnicodeString14hasShortLengthEv(ptr noundef nonnull align 8 dereferenceable(64) %this1)
  %tobool = icmp ne i8 %call, 0
  br i1 %tobool, label %cond.true, label %cond.false

cond.true:                                        ; preds = %entry
  %call2 = call noundef i32 @_ZNK6icu_7513UnicodeString14getShortLengthEv(ptr noundef nonnull align 8 dereferenceable(64) %this1)
  br label %cond.end

cond.false:                                       ; preds = %entry
  %fUnion = getelementptr inbounds %"class.icu_75::UnicodeString", ptr %this1, i32 0, i32 1
  %fLength = getelementptr inbounds %struct.anon.0, ptr %fUnion, i32 0, i32 1
  %0 = load i32, ptr %fLength, align 4
  br label %cond.end

cond.end:                                         ; preds = %cond.false, %cond.true
  %cond = phi i32 [ %call2, %cond.true ], [ %0, %cond.false ]
  ret i32 %cond
}

; Function Attrs: mustprogress uwtable
define void @_ZN6icu_756number4impl13PatternParser29parseToExistingPropertiesImplERKNS_13UnicodeStringERNS1_23DecimalFormatPropertiesENS1_14IgnoreRoundingER10UErrorCode(ptr noundef nonnull align 8 dereferenceable(64) %pattern, ptr noundef nonnull align 8 dereferenceable(757) %properties, i32 noundef %ignoreRounding, ptr noundef nonnull align 4 dereferenceable(4) %status) #1 align 2 personality ptr @__gxx_personality_v0 {
entry:
  %pattern.addr = alloca ptr, align 8
  %properties.addr = alloca ptr, align 8
  %ignoreRounding.addr = alloca i32, align 4
  %status.addr = alloca ptr, align 8
  %patternInfo = alloca %"struct.icu_75::number::impl::ParsedPatternInfo", align 8
  %exn.slot = alloca ptr, align 8
  %ehselector.slot = alloca i32, align 4
  %cleanup.dest.slot = alloca i32, align 4
  store ptr %pattern, ptr %pattern.addr, align 8
  store ptr %properties, ptr %properties.addr, align 8
  store i32 %ignoreRounding, ptr %ignoreRounding.addr, align 4
  store ptr %status, ptr %status.addr, align 8
  %0 = load ptr, ptr %pattern.addr, align 8
  %call = call noundef i32 @_ZNK6icu_7513UnicodeString6lengthEv(ptr noundef nonnull align 8 dereferenceable(64) %0)
  %cmp = icmp eq i32 %call, 0
  br i1 %cmp, label %if.then, label %if.end

if.then:                                          ; preds = %entry
  %1 = load ptr, ptr %properties.addr, align 8
  call void @_ZN6icu_756number4impl23DecimalFormatProperties5clearEv(ptr noundef nonnull align 8 dereferenceable(757) %1)
  br label %cleanup.cont

if.end:                                           ; preds = %entry
  call void @_ZN6icu_756number4impl17ParsedPatternInfoC2Ev(ptr noundef nonnull align 8 dereferenceable(433) %patternInfo)
  %2 = load ptr, ptr %pattern.addr, align 8
  %3 = load ptr, ptr %status.addr, align 8
  invoke void @_ZN6icu_756number4impl13PatternParser18parseToPatternInfoERKNS_13UnicodeStringERNS1_17ParsedPatternInfoER10UErrorCode(ptr noundef nonnull align 8 dereferenceable(64) %2, ptr noundef nonnull align 8 dereferenceable(433) %patternInfo, ptr noundef nonnull align 4 dereferenceable(4) %3)
          to label %invoke.cont unwind label %lpad

invoke.cont:                                      ; preds = %if.end
  %4 = load ptr, ptr %status.addr, align 8
  %5 = load i32, ptr %4, align 4
  %call2 = invoke noundef signext i8 @_ZL9U_FAILURE10UErrorCode(i32 noundef %5)
          to label %invoke.cont1 unwind label %lpad

invoke.cont1:                                     ; preds = %invoke.cont
  %tobool = icmp ne i8 %call2, 0
  br i1 %tobool, label %if.then3, label %if.end4

if.then3:                                         ; preds = %invoke.cont1
  store i32 1, ptr %cleanup.dest.slot, align 4
  br label %cleanup

lpad:                                             ; preds = %if.end4, %invoke.cont, %if.end
  %6 = landingpad { ptr, i32 }
          cleanup
  %7 = extractvalue { ptr, i32 } %6, 0
  store ptr %7, ptr %exn.slot, align 8
  %8 = extractvalue { ptr, i32 } %6, 1
  store i32 %8, ptr %ehselector.slot, align 4
  call void @_ZN6icu_756number4impl17ParsedPatternInfoD2Ev(ptr noundef nonnull align 8 dereferenceable(433) %patternInfo) #8
  br label %eh.resume

if.end4:                                          ; preds = %invoke.cont1
  %9 = load ptr, ptr %properties.addr, align 8
  %10 = load i32, ptr %ignoreRounding.addr, align 4
  %11 = load ptr, ptr %status.addr, align 8
  invoke void @_ZN6icu_756number4impl13PatternParser23patternInfoToPropertiesERNS1_23DecimalFormatPropertiesERNS1_17ParsedPatternInfoENS1_14IgnoreRoundingER10UErrorCode(ptr noundef nonnull align 8 dereferenceable(757) %9, ptr noundef nonnull align 8 dereferenceable(433) %patternInfo, i32 noundef %10, ptr noundef nonnull align 4 dereferenceable(4) %11)
          to label %invoke.cont5 unwind label %lpad

invoke.cont5:                                     ; preds = %if.end4
  store i32 0, ptr %cleanup.dest.slot, align 4
  br label %cleanup

cleanup:                                          ; preds = %invoke.cont5, %if.then3
  call void @_ZN6icu_756number4impl17ParsedPatternInfoD2Ev(ptr noundef nonnull align 8 dereferenceable(433) %patternInfo) #8
  %cleanup.dest = load i32, ptr %cleanup.dest.slot, align 4
  switch i32 %cleanup.dest, label %unreachable [
    i32 0, label %cleanup.cont
    i32 1, label %cleanup.cont
  ]

cleanup.cont:                                     ; preds = %cleanup, %cleanup, %if.then
  ret void

eh.resume:                                        ; preds = %lpad
  %exn = load ptr, ptr %exn.slot, align 8
  %sel = load i32, ptr %ehselector.slot, align 4
  %lpad.val = insertvalue { ptr, i32 } poison, ptr %exn, 0
  %lpad.val6 = insertvalue { ptr, i32 } %lpad.val, i32 %sel, 1
  resume { ptr, i32 } %lpad.val6

unreachable:                                      ; preds = %cleanup
  unreachable
}