; Function Attrs: mustprogress uwtable
define void @_ZN6icu_756number4impl13PatternParser29parseToExistingPropertiesImplERKNS_13UnicodeStringERNS1_23DecimalFormatPropertiesENS1_14IgnoreRoundingER10UErrorCode(ptr noundef nonnull align 8 dereferenceable(64) %pattern, ptr noundef nonnull align 8 dereferenceable(757) %properties, i32 noundef %ignoreRounding, ptr noundef nonnull align 4 dereferenceable(4) %status) local_unnamed_addr #1 align 2 personality ptr @__gxx_personality_v0 {
entry:
  %patternInfo = alloca %"struct.icu_75::number::impl::ParsedPatternInfo", align 8
  %fUnion.i.i = getelementptr inbounds i8, ptr %pattern, i64 8
  %0 = load i16, ptr %fUnion.i.i, align 8
  %cmp.i.i = icmp slt i16 %0, 0
  %1 = ashr i16 %0, 5
  %shr.i.i = sext i16 %1 to i32
  %fLength.i = getelementptr inbounds i8, ptr %pattern, i64 12
  %2 = load i32, ptr %fLength.i, align 4
  %cond.i = select i1 %cmp.i.i, i32 %2, i32 %shr.i.i
  %cmp = icmp eq i32 %cond.i, 0
  br i1 %cmp, label %if.then, label %if.end

if.then:                                          ; preds = %entry
  tail call void @_ZN6icu_756number4impl23DecimalFormatProperties5clearEv(ptr noundef nonnull align 8 dereferenceable(757) %properties)
  br label %cleanup.cont

if.end:                                           ; preds = %entry
  call void @_ZN6icu_756number4impl17ParsedPatternInfoC2Ev(ptr noundef nonnull align 8 dereferenceable(433) %patternInfo)
  invoke void @_ZN6icu_756number4impl17ParsedPatternInfo14consumePatternERKNS_13UnicodeStringER10UErrorCode(ptr noundef nonnull align 8 dereferenceable(433) %patternInfo, ptr noundef nonnull align 8 dereferenceable(64) %pattern, ptr noundef nonnull align 4 dereferenceable(4) %status)
          to label %invoke.cont unwind label %lpad

invoke.cont:                                      ; preds = %if.end
  %3 = load i32, ptr %status, align 4
  %cmp.i = icmp slt i32 %3, 1
  br i1 %cmp.i, label %if.end4, label %cleanup

lpad:                                             ; preds = %if.end, %if.end4
  %4 = landingpad { ptr, i32 }
          cleanup
  call void @_ZN6icu_756number4impl17ParsedPatternInfoD2Ev(ptr noundef nonnull align 8 dereferenceable(433) %patternInfo) #13
  resume { ptr, i32 } %4

if.end4:                                          ; preds = %invoke.cont
  invoke void @_ZN6icu_756number4impl13PatternParser23patternInfoToPropertiesERNS1_23DecimalFormatPropertiesERNS1_17ParsedPatternInfoENS1_14IgnoreRoundingER10UErrorCode(ptr noundef nonnull align 8 dereferenceable(757) %properties, ptr noundef nonnull align 8 dereferenceable(433) %patternInfo, i32 noundef %ignoreRounding, ptr noundef nonnull align 4 dereferenceable(4) %status)
          to label %cleanup unwind label %lpad

cleanup:                                          ; preds = %if.end4, %invoke.cont
  store ptr getelementptr inbounds ({ [14 x ptr] }, ptr @_ZTVN6icu_756number4impl17ParsedPatternInfoE, i64 0, i32 0, i64 2), ptr %patternInfo, align 8
  %rounding.i.i = getelementptr inbounds i8, ptr %patternInfo, i64 296
  call void @_ZN6icu_756number4impl15DecimalQuantityD1Ev(ptr noundef nonnull align 8 dereferenceable(66) %rounding.i.i) #13
  %rounding.i1.i = getelementptr inbounds i8, ptr %patternInfo, i64 128
  call void @_ZN6icu_756number4impl15DecimalQuantityD1Ev(ptr noundef nonnull align 8 dereferenceable(66) %rounding.i1.i) #13
  %pattern.i = getelementptr inbounds i8, ptr %patternInfo, i64 8
  call void @_ZN6icu_7513UnicodeStringD1Ev(ptr noundef nonnull align 8 dereferenceable(64) %pattern.i) #13
  call void @_ZN6icu_756number4impl20AffixPatternProviderD2Ev(ptr noundef nonnull align 8 dereferenceable(8) %patternInfo) #13
  br label %cleanup.cont

cleanup.cont:                                     ; preds = %cleanup, %if.then
  ret void
}